target datalayout = "e-m:e-p270:32:32-p271:32:32-p272:64:64-i64:64-i128:128-f80:128-n8:16:32:64-S128"
target triple = "x86_64-pc-linux-gnu"

%"class.std::__cxx11::basic_string" = type { %"struct.std::__cxx11::basic_string<char>::_Alloc_hider", i64, %union.anon }
%"struct.std::__cxx11::basic_string<char>::_Alloc_hider" = type { ptr }
%union.anon = type { i64, [8 x i8] }
%struct.stat = type { i64, i64, i64, i32, i32, i32, i32, i64, i64, i64, i64, %struct.timespec, %struct.timespec, %struct.timespec, [3 x i64] }
%struct.timespec = type { i64, i64 }
%"class.std::optional" = type { %"struct.std::_Optional_base" }
%"struct.std::_Optional_base" = type { %"struct.std::_Optional_payload" }
%"struct.std::_Optional_payload" = type { %"struct.std::_Optional_payload_base.base", [3 x i8] }
%"struct.std::_Optional_payload_base.base" = type <{ %"union.std::_Optional_payload_base<std::pair<unsigned int, unsigned int>>::_Storage", i8 }>
%"union.std::_Optional_payload_base<std::pair<unsigned int, unsigned int>>::_Storage" = type { %"struct.std::pair" }
%"struct.std::pair" = type { i32, i32 }
%"class.std::allocator" = type { i8 }

@.str = private unnamed_addr constant [46 x i8] c"wrong ownership of top-level store path '%1%'\00", align 1
@_ZTIN3nix5ErrorE = linkonce_odr constant { ptr, ptr, ptr } { ptr getelementptr inbounds (ptr, ptr @_ZTVN10__cxxabiv120__si_class_type_infoE, i64 2), ptr @_ZTSN3nix5ErrorE, ptr @_ZTIN3nix9BaseErrorE }, comdat, align 8

; Function Attrs: mustprogress uwtable
define void @_ZN3nix24canonicalisePathMetaDataERKNSt7__cxx1112basic_stringIcSt11char_traitsIcESaIcEEESt8optionalISt4pairIjjEERSt3setIS9_ImmESt4lessISD_ESaISD_EE(ptr noundef nonnull align 8 dereferenceable(32) %0, i64 %1, i8 %2, ptr noundef nonnull align 8 dereferenceable(48) %3) #5 personality ptr @__gxx_personality_v0 {
  %5 = alloca %"class.std::optional", align 4
  %6 = alloca { i64, i8 }, align 4
  %7 = alloca ptr, align 8
  %8 = alloca ptr, align 8
  %9 = alloca %"class.std::optional", align 4
  %10 = alloca { i64, i8 }, align 4
  %11 = alloca %struct.stat, align 8
  %12 = alloca %"class.std::__cxx11::basic_string", align 8
  %13 = alloca %"class.std::allocator", align 1
  %14 = alloca ptr, align 8
  %15 = alloca i32, align 4
  %16 = alloca i1, align 1
  %17 = getelementptr inbounds { i64, i8 }, ptr %6, i32 0, i32 0
  store i64 %1, ptr %17, align 4
  %18 = getelementptr inbounds { i64, i8 }, ptr %6, i32 0, i32 1
  store i8 %2, ptr %18, align 4
  call void @llvm.memcpy.p0.p0.i64(ptr align 4 %5, ptr align 4 %6, i64 12, i1 false)
  store ptr %0, ptr %7, align 8
  store ptr %3, ptr %8, align 8
  %19 = load ptr, ptr %7, align 8
  call void @llvm.memcpy.p0.p0.i64(ptr align 4 %9, ptr align 4 %5, i64 12, i1 false)
  %20 = load ptr, ptr %8, align 8
  call void @llvm.memcpy.p0.p0.i64(ptr align 4 %10, ptr align 4 %9, i64 12, i1 false)
  %21 = getelementptr inbounds { i64, i8 }, ptr %10, i32 0, i32 0
  %22 = load i64, ptr %21, align 4
  %23 = getelementptr inbounds { i64, i8 }, ptr %10, i32 0, i32 1
  %24 = load i8, ptr %23, align 4
  call void @_ZN3nixL25canonicalisePathMetaData_ERKNSt7__cxx1112basic_stringIcSt11char_traitsIcESaIcEEESt8optionalISt4pairIjjEERSt3setIS9_ImmESt4lessISD_ESaISD_EE(ptr noundef nonnull align 8 dereferenceable(32) %19, i64 %22, i8 %24, ptr noundef nonnull align 8 dereferenceable(48) %20)
  %25 = load ptr, ptr %7, align 8
  call void @_ZN3nix5lstatERKNSt7__cxx1112basic_stringIcSt11char_traitsIcESaIcEEE(ptr dead_on_unwind writable sret(%struct.stat) align 8 %11, ptr noundef nonnull align 8 dereferenceable(32) %25)
  %26 = getelementptr inbounds %struct.stat, ptr %11, i32 0, i32 4
  %27 = load i32, ptr %26, align 4
  %28 = call i32 @geteuid() #1
  %29 = icmp ne i32 %27, %28
  br i1 %29, label %30, label %47

30:                                               ; preds = %4
  store i1 true, ptr %16, align 1
  %31 = call ptr @__cxa_allocate_exception(i64 376) #1
  call void @_ZNSaIcEC1Ev(ptr noundef nonnull align 1 dereferenceable(1) %13) #1
  invoke void @_ZNSt7__cxx1112basic_stringIcSt11char_traitsIcESaIcEEC2IS3_EEPKcRKS3_(ptr noundef nonnull align 8 dereferenceable(32) %12, ptr noundef @.str, ptr noundef nonnull align 1 dereferenceable(1) %13)
          to label %32 unwind label %35

32:                                               ; preds = %30
  %33 = load ptr, ptr %7, align 8
  invoke void @_ZN3nix5ErrorCI2NS_9BaseErrorEIJNSt7__cxx1112basic_stringIcSt11char_traitsIcESaIcEEEEEERKS6_DpRKT_(ptr noundef nonnull align 8 dereferenceable(376) %31, ptr noundef nonnull align 8 dereferenceable(32) %12, ptr noundef nonnull align 8 dereferenceable(32) %33)
          to label %34 unwind label %39

34:                                               ; preds = %32
  store i1 false, ptr %16, align 1
  invoke void @__cxa_throw(ptr %31, ptr @_ZTIN3nix5ErrorE, ptr @_ZN3nix5ErrorD2Ev) #19
          to label %53 unwind label %39

35:                                               ; preds = %30
  %36 = landingpad { ptr, i32 }
          cleanup
  %37 = extractvalue { ptr, i32 } %36, 0
  store ptr %37, ptr %14, align 8
  %38 = extractvalue { ptr, i32 } %36, 1
  store i32 %38, ptr %15, align 4
  br label %43

39:                                               ; preds = %34, %32
  %40 = landingpad { ptr, i32 }
          cleanup
  %41 = extractvalue { ptr, i32 } %40, 0
  store ptr %41, ptr %14, align 8
  %42 = extractvalue { ptr, i32 } %40, 1
  store i32 %42, ptr %15, align 4
  call void @_ZNSt7__cxx1112basic_stringIcSt11char_traitsIcESaIcEED2Ev(ptr noundef nonnull align 8 dereferenceable(32) %12) #1
  br label %43

43:                                               ; preds = %39, %35
  call void @_ZNSaIcED1Ev(ptr noundef nonnull align 1 dereferenceable(1) %13) #1
  %44 = load i1, ptr %16, align 1
  br i1 %44, label %45, label %46

45:                                               ; preds = %43
  call void @__cxa_free_exception(ptr %31) #1
  br label %46

46:                                               ; preds = %45, %43
  br label %48

47:                                               ; preds = %4
  ret void

48:                                               ; preds = %46
  %49 = load ptr, ptr %14, align 8
  %50 = load i32, ptr %15, align 4
  %51 = insertvalue { ptr, i32 } poison, ptr %49, 0
  %52 = insertvalue { ptr, i32 } %51, i32 %50, 1
  resume { ptr, i32 } %52

53:                                               ; preds = %34
  unreachable
}