; Function Attrs: mustprogress uwtable
define void @_ZN3nix24canonicalisePathMetaDataERKNSt7__cxx1112basic_stringIcSt11char_traitsIcESaIcEEESt8optionalISt4pairIjjEERSt3setIS9_ImmESt4lessISD_ESaISD_EE(ptr noundef nonnull align 8 dereferenceable(32) %0, i64 %1, i8 %2, ptr noundef nonnull align 8 dereferenceable(48) %3) local_unnamed_addr #4 personality ptr @__gxx_personality_v0 {
  %5 = alloca %struct.stat, align 8
  %6 = alloca %"class.std::__cxx11::basic_string", align 8
  %7 = alloca %"class.std::allocator", align 1
  tail call fastcc void @_ZN3nixL25canonicalisePathMetaData_ERKNSt7__cxx1112basic_stringIcSt11char_traitsIcESaIcEEESt8optionalISt4pairIjjEERSt3setIS9_ImmESt4lessISD_ESaISD_EE(ptr noundef nonnull align 8 dereferenceable(32) %0, i64 %1, i8 %2, ptr noundef nonnull align 8 dereferenceable(48) %3)
  call void @_ZN3nix5lstatERKNSt7__cxx1112basic_stringIcSt11char_traitsIcESaIcEEE(ptr dead_on_unwind nonnull writable sret(%struct.stat) align 8 %5, ptr noundef nonnull align 8 dereferenceable(32) %0)
  %8 = getelementptr inbounds i8, ptr %5, i64 28
  %9 = load i32, ptr %8, align 4
  %10 = call i32 @geteuid() #25
  %.not = icmp eq i32 %9, %10
  br i1 %.not, label %19, label %11

11:                                               ; preds = %4
  %12 = call ptr @__cxa_allocate_exception(i64 376) #25
  call void @_ZNSaIcEC1Ev(ptr noundef nonnull align 1 dereferenceable(1) %7) #25
  invoke void @_ZNSt7__cxx1112basic_stringIcSt11char_traitsIcESaIcEEC2IS3_EEPKcRKS3_(ptr noundef nonnull align 8 dereferenceable(32) %6, ptr noundef nonnull @.str, ptr noundef nonnull align 1 dereferenceable(1) %7)
          to label %13 unwind label %.thread

13:                                               ; preds = %11
  invoke void @_ZN3nix5ErrorCI2NS_9BaseErrorEIJNSt7__cxx1112basic_stringIcSt11char_traitsIcESaIcEEEEEERKS6_DpRKT_(ptr noundef nonnull align 8 dereferenceable(376) %12, ptr noundef nonnull align 8 dereferenceable(32) %6, ptr noundef nonnull align 8 dereferenceable(32) %0)
          to label %14 unwind label %16

14:                                               ; preds = %13
  invoke void @__cxa_throw(ptr nonnull %12, ptr nonnull @_ZTIN3nix5ErrorE, ptr nonnull @_ZN3nix5ErrorD2Ev) #26
          to label %21 unwind label %16

.thread:                                          ; preds = %11
  %15 = landingpad { ptr, i32 }
          cleanup
  call void @_ZNSaIcED1Ev(ptr noundef nonnull align 1 dereferenceable(1) %7) #25
  br label %18

16:                                               ; preds = %13, %14
  %.0 = phi i1 [ false, %14 ], [ true, %13 ]
  %17 = landingpad { ptr, i32 }
          cleanup
  call void @_ZNSt7__cxx1112basic_stringIcSt11char_traitsIcESaIcEED2Ev(ptr noundef nonnull align 8 dereferenceable(32) %6) #25
  call void @_ZNSaIcED1Ev(ptr noundef nonnull align 1 dereferenceable(1) %7) #25
  br i1 %.0, label %18, label %20

18:                                               ; preds = %.thread, %16
  %.pn20 = phi { ptr, i32 } [ %15, %.thread ], [ %17, %16 ]
  call void @__cxa_free_exception(ptr %12) #25
  br label %20

19:                                               ; preds = %4
  ret void

20:                                               ; preds = %16, %18
  %.pn19 = phi { ptr, i32 } [ %17, %16 ], [ %.pn20, %18 ]
  resume { ptr, i32 } %.pn19

21:                                               ; preds = %14
  unreachable
}